   1              		.file	"0-visor_main.c"
   2              		.intel_syntax noprefix
   3              		.text
   4              	.Ltext0:
   5              	#APP
   6 0000 EB00     		jmp main
   7              	#NO_APP
   8              		.comm	_exception_number,2,2
   9              		.comm	_exc_CS,2,2
  10              		.comm	_exc_IP,2,2
  11              		.comm	vhost,68,32
  12              		.comm	guest,28,4
  13              		.comm	GuestRegisters,56,32
  14              		.comm	host,8,4
  15              		.globl	fatalErrorNum
  16              		.bss
  17              		.align 4
  20              	fatalErrorNum:
  21 0000 00000000 		.zero	4
  22              		.section	.rodata
  23              	.LC0:
  24 0000 41626F75 		.string	"About to enable A20"
  24      7420746F 
  24      20656E61 
  24      626C6520 
  24      41323000 
  25              	.LC1:
  26 0014 5669736F 		.string	"Visor Loaded"
  26      72204C6F 
  26      61646564 
  26      00
  27              	.LC2:
  28 0021 53564D20 		.string	"SVM is available"
  28      69732061 
  28      7661696C 
  28      61626C65 
  28      00
  29 0032 00       		.string	""
  30 0033 00       		.align 4
  31              	.LC3:
  32 0034 53564D20 		.string	"SVM is not available on this machine."
  32      6973206E 
  32      6F742061 
  32      7661696C 
  32      61626C65 
  33 005a 00       		.string	""
  34 005b 00       		.align 4
  35              	.LC4:
  36 005c 53564D20 		.string	"SVM is disabled in the BIOS and is not unlockable"
  36      69732064 
  36      69736162 
  36      6C656420 
  36      696E2074 
  37 008e 00       		.string	""
  38              	.LC5:
  39 008f 53564D20 		.string	"SVM is disabled with key"
  39      69732064 
  39      69736162 
  39      6C656420 
  39      77697468 
  40 00a8 00       		.string	""
  41 00a9 000000   		.align 4
  42              	.LC6:
  43 00ac 556E6B6E 		.string	"Unknown error detecting SVM availability"
  43      6F776E20 
  43      6572726F 
  43      72206465 
  43      74656374 
  44 00d5 00       		.string	""
  45              		.text
  46              		.globl	main
  48              	main:
  49              	.LFB0:
  50              		.file 1 "0-visor_main.c"
   1:0-visor_main.c **** __asm__("jmp main");
   2:0-visor_main.c **** 
   3:0-visor_main.c **** #include "visor_main.h"
   4:0-visor_main.c **** #include "BMVisor.h"
   5:0-visor_main.c **** #include "vmcb.h"
   6:0-visor_main.c **** #include "x86_architecture.h"
   7:0-visor_main.c **** #include "utility.h"
   8:0-visor_main.c **** #include "x86.h"
   9:0-visor_main.c **** #include "pmode.h"
  10:0-visor_main.c **** #include "pmode_screen.h"
  11:0-visor_main.c **** #include "guest.h"
  12:0-visor_main.c **** #include "host.h"
  13:0-visor_main.c **** 
  14:0-visor_main.c **** 
  15:0-visor_main.c **** DWORD fatalErrorNum = 0;
  16:0-visor_main.c **** 
  17:0-visor_main.c **** void main(void)
  18:0-visor_main.c **** {
  51              		.loc 1 18 0
  52              		.cfi_startproc
  53 0002 8D4C2404 		lea	ecx, [esp+4]
  54              		.cfi_def_cfa 1, 0
  55 0006 83E4F0   		and	esp, -16
  56 0009 FF71FC   		push	DWORD PTR [ecx-4]
  57 000c 55       		push	ebp
  58              		.cfi_escape 0x10,0x5,0x2,0x75,0
  59 000d 89E5     		mov	ebp, esp
  60 000f 53       		push	ebx
  61 0010 51       		push	ecx
  62              		.cfi_escape 0xf,0x3,0x75,0x78,0x6
  63              		.cfi_escape 0x10,0x3,0x2,0x75,0x7c
  64 0011 83EC10   		sub	esp, 16
  19:0-visor_main.c ****     setHostSegReg(FS, SELECTOR_ALL_MEM);
  65              		.loc 1 19 0
  66 0014 83EC08   		sub	esp, 8
  67 0017 6A10     		push	16
  68 0019 6A0B     		push	11
  69 001b E8FCFFFF 		call	setHostSegReg
  69      FF
  70 0020 83C410   		add	esp, 16
  20:0-visor_main.c ****     setHostSegReg(DS, SELECTOR_VISOR_DATA);
  71              		.loc 1 20 0
  72 0023 83EC08   		sub	esp, 8
  73 0026 6A38     		push	56
  74 0028 6A09     		push	9
  75 002a E8FCFFFF 		call	setHostSegReg
  75      FF
  76 002f 83C410   		add	esp, 16
  21:0-visor_main.c ****     setHostSegReg(ES, SELECTOR_ALL_MEM);
  77              		.loc 1 21 0
  78 0032 83EC08   		sub	esp, 8
  79 0035 6A10     		push	16
  80 0037 6A0A     		push	10
  81 0039 E8FCFFFF 		call	setHostSegReg
  81      FF
  82 003e 83C410   		add	esp, 16
  22:0-visor_main.c ****     setHostSegReg(GS, SELECTOR_VISOR_DATA);
  83              		.loc 1 22 0
  84 0041 83EC08   		sub	esp, 8
  85 0044 6A38     		push	56
  86 0046 6A0C     		push	12
  87 0048 E8FCFFFF 		call	setHostSegReg
  87      FF
  88 004d 83C410   		add	esp, 16
  23:0-visor_main.c **** 
  24:0-visor_main.c ****     vhost.memSize = 0x15000000;
  89              		.loc 1 24 0
  90 0050 C7053000 		mov	DWORD PTR vhost+48, 352321536
  90      00000000 
  90      0015
  25:0-visor_main.c ****     guest.memSize = 3*1024*1024; //0x3000000;
  91              		.loc 1 25 0
  92 005a C7050000 		mov	DWORD PTR guest, 3145728
  92      00000000 
  92      3000
  26:0-visor_main.c ****     guest.GuestMemStartAddress = 0x0;
  93              		.loc 1 26 0
  94 0064 C7050800 		mov	DWORD PTR guest+8, 0
  94      00000000 
  94      0000
  27:0-visor_main.c ****     vhost.CodeBase = guest.memSize + guest.GuestMemStartAddress + (1024*1024*1);    
  95              		.loc 1 27 0
  96 006e 8B150000 		mov	edx, DWORD PTR guest
  96      0000
  97 0074 A1080000 		mov	eax, DWORD PTR guest+8
  97      00
  98 0079 01D0     		add	eax, edx
  99 007b 05000010 		add	eax, 1048576
  99      00
 100 0080 A3000000 		mov	DWORD PTR vhost, eax
 100      00
  28:0-visor_main.c ****     vhost.StackBase = vhost.CodeBase;
 101              		.loc 1 28 0
 102 0085 A1000000 		mov	eax, DWORD PTR vhost
 102      00
 103 008a A3040000 		mov	DWORD PTR vhost+4, eax
 103      00
  29:0-visor_main.c ****     vhost.VMCBOffset = 0x30000;
 104              		.loc 1 29 0
 105 008f C7050800 		mov	DWORD PTR vhost+8, 196608
 105      00000000 
 105      0300
  30:0-visor_main.c ****     vhost.VMCBIoioOffset = vhost.VMCBOffset + sizeof(struct vmcb_struct);
 106              		.loc 1 30 0
 107 0099 A1080000 		mov	eax, DWORD PTR vhost+8
 107      00
 108 009e 05001000 		add	eax, 4096
 108      00
 109 00a3 A30C0000 		mov	DWORD PTR vhost+12, eax
 109      00
  31:0-visor_main.c ****     vhost.CR3 = vhost.VMCBIoioOffset + 0x3000;
 110              		.loc 1 31 0
 111 00a8 A10C0000 		mov	eax, DWORD PTR vhost+12
 111      00
 112 00ad 05003000 		add	eax, 12288
 112      00
 113 00b2 A33C0000 		mov	DWORD PTR vhost+60, eax
 113      00
  32:0-visor_main.c ****     vhost.IDTOffset = vhost.CR3 + 0x1000 /*PDE*/ + (vhost.memSize / 0x1000) * 4 /*PTE*/;
 114              		.loc 1 32 0
 115 00b7 A13C0000 		mov	eax, DWORD PTR vhost+60
 115      00
 116 00bc 8B153000 		mov	edx, DWORD PTR vhost+48
 116      0000
 117 00c2 C1EA0C   		shr	edx, 12
 118 00c5 C1E202   		sal	edx, 2
 119 00c8 01D0     		add	eax, edx
 120 00ca 05001000 		add	eax, 4096
 120      00
 121 00cf A3100000 		mov	DWORD PTR vhost+16, eax
 121      00
  33:0-visor_main.c ****     vhost.GDTOffset = vhost.IDTOffset + 0x1000;
 122              		.loc 1 33 0
 123 00d4 A1100000 		mov	eax, DWORD PTR vhost+16
 123      00
 124 00d9 05001000 		add	eax, 4096
 124      00
 125 00de A3140000 		mov	DWORD PTR vhost+20, eax
 125      00
  34:0-visor_main.c ****     vhost.HostSaveArea = (vhost.GDTOffset + 0x1000 + 0x10000) & 0xFFFF0000; //Bottom 12 bits of HSA
 126              		.loc 1 34 0
 127 00e3 A1140000 		mov	eax, DWORD PTR vhost+20
 127      00
 128 00e8 05001001 		add	eax, 69632
 128      00
 129 00ed 66B80000 		mov	ax, 0
 130 00f1 A3180000 		mov	DWORD PTR vhost+24, eax
 130      00
  35:0-visor_main.c ****     vhost.BIOSSave = vhost.HostSaveArea + 0x4000 /*Size of HSA*/;  //BIOSSave is 128k
 131              		.loc 1 35 0
 132 00f6 A1180000 		mov	eax, DWORD PTR vhost+24
 132      00
 133 00fb 05004000 		add	eax, 16384
 133      00
 134 0100 A31C0000 		mov	DWORD PTR vhost+28, eax
 134      00
  36:0-visor_main.c ****     vhost.VIDEOSave = vhost.BIOSSave + 0x20000; //VIDEOSave is 64k
 135              		.loc 1 36 0
 136 0105 A11C0000 		mov	eax, DWORD PTR vhost+28
 136      00
 137 010a 05000002 		add	eax, 131072
 137      00
 138 010f A3200000 		mov	DWORD PTR vhost+32, eax
 138      00
  37:0-visor_main.c ****     vhost.NestedCR3 = vhost.VIDEOSave + 0x10000;  //Vid Bios is 0xFFFF bytes
 139              		.loc 1 37 0
 140 0114 A1200000 		mov	eax, DWORD PTR vhost+32
 140      00
 141 0119 05000001 		add	eax, 65536
 141      00
 142 011e A3240000 		mov	DWORD PTR vhost+36, eax
 142      00
  38:0-visor_main.c ****     vhost.NestedCR3Backup = vhost.NestedCR3 + 0x1000 /*PDE*/ + (guest.memSize / 0x1000) * 4 /*PTE*/
 143              		.loc 1 38 0
 144 0123 A1240000 		mov	eax, DWORD PTR vhost+36
 144      00
 145 0128 8B150000 		mov	edx, DWORD PTR guest
 145      0000
 146 012e C1EA0C   		shr	edx, 12
 147 0131 C1E202   		sal	edx, 2
 148 0134 01D0     		add	eax, edx
 149 0136 05001000 		add	eax, 4096
 149      00
 150 013b A3280000 		mov	DWORD PTR vhost+40, eax
 150      00
  39:0-visor_main.c ****     vhost.BootSectorSave = vhost.NestedCR3Backup + 0x1000 /*PDE*/ + (guest.memSize / 0x1000) * 4 /*
 151              		.loc 1 39 0
 152 0140 A1280000 		mov	eax, DWORD PTR vhost+40
 152      00
 153 0145 8B150000 		mov	edx, DWORD PTR guest
 153      0000
 154 014b C1EA0C   		shr	edx, 12
 155 014e C1E202   		sal	edx, 2
 156 0151 01D0     		add	eax, edx
 157 0153 05001000 		add	eax, 4096
 157      00
 158 0158 A32C0000 		mov	DWORD PTR vhost+44, eax
 158      00
  40:0-visor_main.c ****     vhost.e820MemMap = vhost.BootSectorSave + 0x200;
 159              		.loc 1 40 0
 160 015d A12C0000 		mov	eax, DWORD PTR vhost+44
 160      00
 161 0162 05000200 		add	eax, 512
 161      00
 162 0167 A3400000 		mov	DWORD PTR vhost+64, eax
 162      00
  41:0-visor_main.c ****     
  42:0-visor_main.c ****     println("About to enable A20");
 163              		.loc 1 42 0
 164 016c 83EC0C   		sub	esp, 12
 165 016f 68000000 		push	OFFSET FLAT:.LC0
 165      00
 166 0174 E8FCFFFF 		call	println
 166      FF
 167 0179 83C410   		add	esp, 16
  43:0-visor_main.c ****     if ( (inb(0x92) & 0x2) != 0x2)
 168              		.loc 1 43 0
 169 017c 83EC0C   		sub	esp, 12
 170 017f 68920000 		push	146
 170      00
 171 0184 E8FCFFFF 		call	inb
 171      FF
 172 0189 83C410   		add	esp, 16
 173 018c 0FB6C0   		movzx	eax, al
 174 018f 83E002   		and	eax, 2
 175 0192 85C0     		test	eax, eax
 176 0194 752B     		jne	.L2
  44:0-visor_main.c ****         ENABLE_A20
 177              		.loc 1 44 0
 178 0196 83EC08   		sub	esp, 8
 179 0199 68D10000 		push	209
 179      00
 180 019e 6A64     		push	100
 181 01a0 E8FCFFFF 		call	outb
 181      FF
 182 01a5 83C410   		add	esp, 16
 183 01a8 83EC08   		sub	esp, 8
 184 01ab 68DF0000 		push	223
 184      00
 185 01b0 6A60     		push	96
 186 01b2 E8FCFFFF 		call	outb
 186      FF
 187 01b7 83C410   		add	esp, 16
 188 01ba C6051800 		mov	BYTE PTR guest+24, 1
 188      000001
 189              	.L2:
  45:0-visor_main.c ****         guest.port92Value = inb(0x92);
 190              		.loc 1 45 0
 191 01c1 83EC0C   		sub	esp, 12
 192 01c4 68920000 		push	146
 192      00
 193 01c9 E8FCFFFF 		call	inb
 193      FF
 194 01ce 83C410   		add	esp, 16
 195 01d1 A2190000 		mov	BYTE PTR guest+25, al
 195      00
  46:0-visor_main.c ****     DWORD lAddy = vhost.CodeBase + vhost.GDTOffset;
 196              		.loc 1 46 0
 197 01d6 8B150000 		mov	edx, DWORD PTR vhost
 197      0000
 198 01dc A1140000 		mov	eax, DWORD PTR vhost+20
 198      00
 199 01e1 01D0     		add	eax, edx
 200 01e3 8945F4   		mov	DWORD PTR [ebp-12], eax
  47:0-visor_main.c ****     CopyMemory(HOST_START_GDT, vhost.CodeBase + vhost.GDTOffset, 0x400);
 201              		.loc 1 47 0
 202 01e6 8B150000 		mov	edx, DWORD PTR vhost
 202      0000
 203 01ec A1140000 		mov	eax, DWORD PTR vhost+20
 203      00
 204 01f1 01D0     		add	eax, edx
 205 01f3 83EC04   		sub	esp, 4
 206 01f6 68000400 		push	1024
 206      00
 207 01fb 50       		push	eax
 208 01fc 68000006 		push	393216
 208      00
 209 0201 E8FCFFFF 		call	CopyMemory
 209      FF
 210 0206 83C410   		add	esp, 16
  48:0-visor_main.c ****     CopyMemory(INT15_MEMORY_MAP << 4, vhost.CodeBase + vhost.e820MemMap, 0x1024);
 211              		.loc 1 48 0
 212 0209 8B150000 		mov	edx, DWORD PTR vhost
 212      0000
 213 020f A1400000 		mov	eax, DWORD PTR vhost+64
 213      00
 214 0214 01D0     		add	eax, edx
 215 0216 83EC04   		sub	esp, 4
 216 0219 68241000 		push	4132
 216      00
 217 021e 50       		push	eax
 218 021f 6800C003 		push	245760
 218      00
 219 0224 E8FCFFFF 		call	CopyMemory
 219      FF
 220 0229 83C410   		add	esp, 16
  49:0-visor_main.c ****     OPEN_UP_DS
 221              		.loc 1 49 0
 222              	#APP
 223              	# 49 "0-visor_main.c" 1
  50 022d B8100000 	    GDTR *gdtP = (GDTR*)vhost.CodeBase + vhost.GDTOffset + (11*8)+4; //Temporary GDTR load address,
  50      00
  51 0232 50       	    gdtP->base = lAddy;
  52 0233 1F       	    gdtP->limit = (11*8)-1;
  53 0234 58       	    __asm__(	"mov ebx,%[gdtr]\n lgdt [ebx]\n"
  54              	    :
  55              	    : [gdtr] "r" (gdtP));
  50:0-visor_main.c ****     gdtP->base = lAddy;
 224              		push eax
 225              	 mov eax, 0x10
 226              	 push eax
 227              	 pop ds
 228              	 pop eax
 229              	
 230              	# 0 "" 2
 231              		.loc 1 50 0
 232              	#NO_APP
 233 0235 8B151400 		mov	edx, DWORD PTR vhost+20
 233      0000
 234 023b 89D0     		mov	eax, edx
 235 023d 01C0     		add	eax, eax
 236 023f 01D0     		add	eax, edx
 237 0241 01C0     		add	eax, eax
 238 0243 89C2     		mov	edx, eax
 239 0245 A1000000 		mov	eax, DWORD PTR vhost
 239      00
 240 024a 01D0     		add	eax, edx
 241 024c 05280200 		add	eax, 552
 241      00
 242 0251 8945F0   		mov	DWORD PTR [ebp-16], eax
  51:0-visor_main.c ****     gdtP->limit = (11*8)-1;
 243              		.loc 1 51 0
 244 0254 8B45F0   		mov	eax, DWORD PTR [ebp-16]
 245 0257 8B55F4   		mov	edx, DWORD PTR [ebp-12]
 246 025a 895002   		mov	DWORD PTR [eax+2], edx
  52:0-visor_main.c ****     __asm__(	"mov ebx,%[gdtr]\n lgdt [ebx]\n"
 247              		.loc 1 52 0
 248 025d 8B45F0   		mov	eax, DWORD PTR [ebp-16]
 249 0260 66C70057 		mov	WORD PTR [eax], 87
 249      00
  53:0-visor_main.c ****     :
 250              		.loc 1 53 0
 251 0265 8B45F0   		mov	eax, DWORD PTR [ebp-16]
 252              	#APP
 253              	# 53 "0-visor_main.c" 1
  56              	    RESTORE_DS
 254              		mov ebx,eax
 255              	 lgdt [ebx]
 256              	
 257              	# 0 "" 2
 258              		.loc 1 56 0
 259              	#NO_APP
 260 026d B8380000 		mov	eax, 56
 260      00
 261              	#APP
 262              	# 56 "0-visor_main.c" 1
  57 0273 89C0     	    /*Create our host stack segment*/
  58 0275 50       	    DESCR_SEG *item = (DESCR_SEG*)lAddy;
  59 0276 1F       	    setup_GDT32_entry_gcc(item+3, vhost.StackBase, 0xFFFFFFFF, 0X93, 0xC);
  60 0277 58       	    asm("mov ebx,0x18\n push ebx\n pop ss\n mov esp,%[lESP]" :: [lESP] "r" ((DWORD)(vhost.memSize -
  61              	    RelocateMyself();
  62              	    RetrieveStartModuleDiskCHSValues((WORD*) &host.RealSectors, (WORD*) &host.RealHeads, (DWORD*) &
  58:0-visor_main.c ****     setup_GDT32_entry_gcc(item+3, vhost.StackBase, 0xFFFFFFFF, 0X93, 0xC);
 263              		push eax
 264              	 mov eax, eax
 265              	 push eax
 266              	 pop ds
 267              	 pop eax
 268              	
 269              	# 0 "" 2
 270              		.loc 1 58 0
 271              	#NO_APP
 272 0278 8B45F4   		mov	eax, DWORD PTR [ebp-12]
 273 027b 8945EC   		mov	DWORD PTR [ebp-20], eax
  59:0-visor_main.c ****     asm("mov ebx,0x18\n push ebx\n pop ss\n mov esp,%[lESP]" :: [lESP] "r" ((DWORD)(vhost.memSize -
 274              		.loc 1 59 0
 275 027e A1040000 		mov	eax, DWORD PTR vhost+4
 275      00
 276 0283 8B55EC   		mov	edx, DWORD PTR [ebp-20]
 277 0286 83C218   		add	edx, 24
 278 0289 83EC0C   		sub	esp, 12
 279 028c 6A0C     		push	12
 280 028e 68930000 		push	147
 280      00
 281 0293 6AFF     		push	-1
 282 0295 50       		push	eax
 283 0296 52       		push	edx
 284 0297 E8FCFFFF 		call	setup_GDT32_entry_gcc
 284      FF
 285 029c 83C420   		add	esp, 32
  60:0-visor_main.c ****     RelocateMyself();
 286              		.loc 1 60 0
 287 029f 8B153000 		mov	edx, DWORD PTR vhost+48
 287      0000
 288 02a5 A1000000 		mov	eax, DWORD PTR vhost
 288      00
 289 02aa 29C2     		sub	edx, eax
 290 02ac 89D0     		mov	eax, edx
 291 02ae 83E864   		sub	eax, 100
 292              	#APP
 293              	# 60 "0-visor_main.c" 1
  63 02b8 89C4     	    ZeroMemory(vhost.CodeBase + vhost.VMCBOffset, sizeof(struct vmcb_struct));
  64              	    InitializeGuest();
  61:0-visor_main.c ****     RetrieveStartModuleDiskCHSValues((WORD*) &host.RealSectors, (WORD*) &host.RealHeads, (DWORD*) &
 294              		mov ebx,0x18
 295              	 push ebx
 296              	 pop ss
 297              	 mov esp,eax
 298              	# 0 "" 2
 299              		.loc 1 61 0
 300              	#NO_APP
 301 02ba E8FCFFFF 		call	RelocateMyself
 301      FF
  62:0-visor_main.c ****     ZeroMemory(vhost.CodeBase + vhost.VMCBOffset, sizeof(struct vmcb_struct));
 302              		.loc 1 62 0
 303 02bf 83EC04   		sub	esp, 4
 304 02c2 68040000 		push	OFFSET FLAT:host+4
 304      00
 305 02c7 68020000 		push	OFFSET FLAT:host+2
 305      00
 306 02cc 68000000 		push	OFFSET FLAT:host
 306      00
 307 02d1 E8FCFFFF 		call	RetrieveStartModuleDiskCHSValues
 307      FF
 308 02d6 83C410   		add	esp, 16
  63:0-visor_main.c ****     InitializeGuest();
 309              		.loc 1 63 0
 310 02d9 8B150000 		mov	edx, DWORD PTR vhost
 310      0000
 311 02df A1080000 		mov	eax, DWORD PTR vhost+8
 311      00
 312 02e4 01D0     		add	eax, edx
 313 02e6 83EC08   		sub	esp, 8
 314 02e9 68001000 		push	4096
 314      00
 315 02ee 50       		push	eax
 316 02ef E8FCFFFF 		call	ZeroMemory
 316      FF
 317 02f4 83C410   		add	esp, 16
 318              		.loc 1 64 0
 319 02f7 E8FCFFFF 		call	InitializeGuest
 319      FF
  65:0-visor_main.c **** //Looper:
  66:0-visor_main.c **** //goto Looper;
  67:0-visor_main.c ****     SetupHostPaging();
 320              		.loc 1 67 0
 321 02fc E8FCFFFF 		call	SetupHostPaging
 321      FF
  68:0-visor_main.c ****     asm volatile("mov cr3, %0":: "b"(vhost.CodeBase + vhost.CR3));
 322              		.loc 1 68 0
 323 0301 8B150000 		mov	edx, DWORD PTR vhost
 323      0000
 324 0307 A13C0000 		mov	eax, DWORD PTR vhost+60
 324      00
 325 030c 01D0     		add	eax, edx
 326 030e 89C3     		mov	ebx, eax
 327              	#APP
 328              	# 68 "0-visor_main.c" 1
  69              	    asm volatile("mov eax, CR0\n or eax,0x80000000\nmov CR0,eax\n"
 329              		mov cr3, ebx
 330              	# 0 "" 2
 331              		.loc 1 69 0
 332              	# 69 "0-visor_main.c" 1
  70 0316 0D000000 	            ::);
  70      80
  71 031b 0F22C0   	    printAt("Visor Loaded",0,20);
  72              	
  73              	    switch (SVMCanBeEnabled())
  71:0-visor_main.c **** 
 333              		mov eax, CR0
 334              	 or eax,0x80000000
 335              	mov CR0,eax
 336              	
 337              	# 0 "" 2
 338              		.loc 1 71 0
 339              	#NO_APP
 340 031e 83EC04   		sub	esp, 4
 341 0321 6A14     		push	20
 342 0323 6A00     		push	0
 343 0325 68140000 		push	OFFSET FLAT:.LC1
 343      00
 344 032a E8FCFFFF 		call	printAt
 344      FF
 345 032f 83C410   		add	esp, 16
 346              		.loc 1 73 0
 347 0332 E8FCFFFF 		call	SVMCanBeEnabled
 347      FF
 348 0337 0FB7C0   		movzx	eax, ax
 349 033a 83F801   		cmp	eax, 1
 350 033d 7429     		je	.L4
 351 033f 83F801   		cmp	eax, 1
 352 0342 7F06     		jg	.L5
 353 0344 85C0     		test	eax, eax
 354 0346 740E     		je	.L6
 355 0348 EB7B     		jmp	.L3
 356              	.L5:
 357 034a 83F802   		cmp	eax, 2
 358 034d 7438     		je	.L7
 359 034f 83F803   		cmp	eax, 3
 360 0352 7452     		je	.L8
 361 0354 EB6F     		jmp	.L3
 362              	.L6:
  74:0-visor_main.c ****     {
  75:0-visor_main.c ****             case SVM_ALLOWED:
  76:0-visor_main.c ****             print("SVM is available\0");
 363              		.loc 1 76 0
 364 0356 83EC0C   		sub	esp, 12
 365 0359 68210000 		push	OFFSET FLAT:.LC2
 365      00
 366 035e E8FCFFFF 		call	print
 366      FF
 367 0363 83C410   		add	esp, 16
  77:0-visor_main.c ****             break;
 368              		.loc 1 77 0
 369 0366 EB7B     		jmp	.L9
 370              	.L4:
  78:0-visor_main.c ****             case SVM_NOT_AVAIL:
  79:0-visor_main.c ****             print("SVM is not available on this machine.\0");
 371              		.loc 1 79 0
 372 0368 83EC0C   		sub	esp, 12
 373 036b 68340000 		push	OFFSET FLAT:.LC3
 373      00
 374 0370 E8FCFFFF 		call	print
 374      FF
 375 0375 83C410   		add	esp, 16
  80:0-visor_main.c ****             FatalError(-1);
 376              		.loc 1 80 0
 377 0378 83EC0C   		sub	esp, 12
 378 037b 6AFF     		push	-1
 379 037d E8FCFFFF 		call	FatalError
 379      FF
 380 0382 83C410   		add	esp, 16
  81:0-visor_main.c ****             break;
 381              		.loc 1 81 0
 382 0385 EB5C     		jmp	.L9
 383              	.L7:
  82:0-visor_main.c ****             case SVM_DISABLED_AT_BIOS_NOT_UNLOCKABLE:
  83:0-visor_main.c ****             print("SVM is disabled in the BIOS and is not unlockable\0");
 384              		.loc 1 83 0
 385 0387 83EC0C   		sub	esp, 12
 386 038a 685C0000 		push	OFFSET FLAT:.LC4
 386      00
 387 038f E8FCFFFF 		call	print
 387      FF
 388 0394 83C410   		add	esp, 16
  84:0-visor_main.c ****             FatalError(-2);
 389              		.loc 1 84 0
 390 0397 83EC0C   		sub	esp, 12
 391 039a 6AFE     		push	-2
 392 039c E8FCFFFF 		call	FatalError
 392      FF
 393 03a1 83C410   		add	esp, 16
  85:0-visor_main.c ****             break;
 394              		.loc 1 85 0
 395 03a4 EB3D     		jmp	.L9
 396              	.L8:
  86:0-visor_main.c ****             case SVM_DISABLED_WITH_KEY:
  87:0-visor_main.c ****             print("SVM is disabled with key\0");
 397              		.loc 1 87 0
 398 03a6 83EC0C   		sub	esp, 12
 399 03a9 688F0000 		push	OFFSET FLAT:.LC5
 399      00
 400 03ae E8FCFFFF 		call	print
 400      FF
 401 03b3 83C410   		add	esp, 16
  88:0-visor_main.c ****             FatalError(-3);
 402              		.loc 1 88 0
 403 03b6 83EC0C   		sub	esp, 12
 404 03b9 6AFD     		push	-3
 405 03bb E8FCFFFF 		call	FatalError
 405      FF
 406 03c0 83C410   		add	esp, 16
  89:0-visor_main.c ****             break;
 407              		.loc 1 89 0
 408 03c3 EB1E     		jmp	.L9
 409              	.L3:
  90:0-visor_main.c ****             default:
  91:0-visor_main.c ****             print("Unknown error detecting SVM availability\0");
 410              		.loc 1 91 0
 411 03c5 83EC0C   		sub	esp, 12
 412 03c8 68AC0000 		push	OFFSET FLAT:.LC6
 412      00
 413 03cd E8FCFFFF 		call	print
 413      FF
 414 03d2 83C410   		add	esp, 16
  92:0-visor_main.c ****             FatalError(-4);
 415              		.loc 1 92 0
 416 03d5 83EC0C   		sub	esp, 12
 417 03d8 6AFC     		push	-4
 418 03da E8FCFFFF 		call	FatalError
 418      FF
 419 03df 83C410   		add	esp, 16
  93:0-visor_main.c ****             break;
 420              		.loc 1 93 0
 421 03e2 90       		nop
 422              	.L9:
  94:0-visor_main.c ****     }
  95:0-visor_main.c ****     
  96:0-visor_main.c ****         
  97:0-visor_main.c ****     ZeroMemory(vhost.CodeBase + vhost.VMCBIoioOffset,0x400 * 12); //IOIO Map is 12k
 423              		.loc 1 97 0
 424 03e3 8B150000 		mov	edx, DWORD PTR vhost
 424      0000
 425 03e9 A10C0000 		mov	eax, DWORD PTR vhost+12
 425      00
 426 03ee 01D0     		add	eax, edx
 427 03f0 83EC08   		sub	esp, 8
 428 03f3 68003000 		push	12288
 428      00
 429 03f8 50       		push	eax
 430 03f9 E8FCFFFF 		call	ZeroMemory
 430      FF
 431 03fe 83C410   		add	esp, 16
  98:0-visor_main.c ****     guest.vmcb->iopm_base_pa = vhost.CodeBase + vhost.VMCBIoioOffset;
 432              		.loc 1 98 0
 433 0401 8B0D0400 		mov	ecx, DWORD PTR guest+4
 433      0000
 434 0407 8B150000 		mov	edx, DWORD PTR vhost
 434      0000
 435 040d A10C0000 		mov	eax, DWORD PTR vhost+12
 435      00
 436 0412 01D0     		add	eax, edx
 437 0414 BA000000 		mov	edx, 0
 437      00
 438 0419 894140   		mov	DWORD PTR [ecx+64], eax
 439 041c 895144   		mov	DWORD PTR [ecx+68], edx
  99:0-visor_main.c ****     
 100:0-visor_main.c ****     //Create my PMode IDT (its about time!)
 101:0-visor_main.c ****     SetupHostIDT();
 440              		.loc 1 101 0
 441 041f E8FCFFFF 		call	SetupHostIDT
 441      FF
 102:0-visor_main.c **** //    asm("xchg bx,bx\n");
 103:0-visor_main.c ****     asm ("mov ebx,%[idtr_addr]\n"
 104:0-visor_main.c ****     "mov fs:[ebx+2],%[base] \n"
 105:0-visor_main.c ****     "movw fs:[ebx], %[limit]\n"
 106:0-visor_main.c ****     "lidt fs:[ebx]\n"
 107:0-visor_main.c ****     ::[idtr_addr] "r" (vhost.CodeBase + vhost.IDTOffset + 0x900),
 442              		.loc 1 107 0
 443 0424 8B150000 		mov	edx, DWORD PTR vhost
 443      0000
 444 042a A1100000 		mov	eax, DWORD PTR vhost+16
 444      00
 445 042f 01D0     		add	eax, edx
 446 0431 05000900 		add	eax, 2304
 446      00
 108:0-visor_main.c ****       [base] "r" (vhost.CodeBase + vhost.IDTOffset),
 447              		.loc 1 108 0
 448 0436 8B0D0000 		mov	ecx, DWORD PTR vhost
 448      0000
 449 043c 8B151000 		mov	edx, DWORD PTR vhost+16
 449      0000
 450 0442 01CA     		add	edx, ecx
 103:0-visor_main.c ****     "mov fs:[ebx+2],%[base] \n"
 451              		.loc 1 103 0
 452 0444 B9070100 		mov	ecx, 263
 452      00
 453              	#APP
 454              	# 103 "0-visor_main.c" 1
 109:0-visor_main.c ****       [limit] "r" ( (WORD)((0x21*8)-1))
 110:0-visor_main.c ****     ); //011a8000
 111:0-visor_main.c ****     SaveHostBIOS();
 455              		mov ebx,eax
 456              	mov fs:[ebx+2],edx 
 457              	movw fs:[ebx], cx
 458              	lidt fs:[ebx]
 459              	
 460              	# 0 "" 2
 461              		.loc 1 111 0
 462              	#NO_APP
 463 0457 E8FCFFFF 		call	SaveHostBIOS
 463      FF
 112:0-visor_main.c ****     SetupGuestBootMemory();
 464              		.loc 1 112 0
 465 045c E8FCFFFF 		call	SetupGuestBootMemory
 465      FF
 113:0-visor_main.c ****     //We remap 0x0:0x0 so need to back up the Nested paging tables again
 114:0-visor_main.c ****     CopyMemory(vhost.CodeBase + vhost.NestedCR3, vhost.CodeBase + vhost.NestedCR3Backup, 0x1000 /*P
 466              		.loc 1 114 0
 467 0461 A1000000 		mov	eax, DWORD PTR guest
 467      00
 468 0466 C1E80C   		shr	eax, 12
 469 0469 05000400 		add	eax, 1024
 469      00
 470 046e 8D0C8500 		lea	ecx, [0+eax*4]
 470      000000
 471 0475 8B150000 		mov	edx, DWORD PTR vhost
 471      0000
 472 047b A1280000 		mov	eax, DWORD PTR vhost+40
 472      00
 473 0480 01C2     		add	edx, eax
 474 0482 8B1D0000 		mov	ebx, DWORD PTR vhost
 474      0000
 475 0488 A1240000 		mov	eax, DWORD PTR vhost+36
 475      00
 476 048d 01D8     		add	eax, ebx
 477 048f 83EC04   		sub	esp, 4
 478 0492 51       		push	ecx
 479 0493 52       		push	edx
 480 0494 50       		push	eax
 481 0495 E8FCFFFF 		call	CopyMemory
 481      FF
 482 049a 83C410   		add	esp, 16
 115:0-visor_main.c **** 
 116:0-visor_main.c ****     //SetIOIOPort(0x70,true);
 117:0-visor_main.c ****     //SetIOIOPort(0x92,true);
 118:0-visor_main.c **** 
 119:0-visor_main.c ****     //Now that we have an IDT, setup the PIT channel 0
 120:0-visor_main.c ****     //56 interrupts per second, one approximately every 18.2 ms.
 121:0-visor_main.c ****     setup_pit_channel_0( 56 );
 483              		.loc 1 121 0
 484 049d 83EC0C   		sub	esp, 12
 485 04a0 6A38     		push	56
 486 04a2 E8FCFFFF 		call	setup_pit_channel_0
 486      FF
 487 04a7 83C410   		add	esp, 16
 122:0-visor_main.c **** 
 123:0-visor_main.c ****     //And now that we have the PIT running, enable interrupts
 124:0-visor_main.c ****     asm("STI\n");
 488              		.loc 1 124 0
 489              	#APP
 490              	# 124 "0-visor_main.c" 1
 125              	#ifdef DEBUG_BASIC
 126              	    PrintHostInformation();
 491              		STI
 492              	
 493              	# 0 "" 2
 494              		.loc 1 126 0
 495              	#NO_APP
 496 04ab E8FCFFFF 		call	PrintHostInformation
 496      FF
 127:0-visor_main.c ****     PrintE820Data();
 497              		.loc 1 127 0
 498 04b0 E8FCFFFF 		call	PrintE820Data
 498      FF
 128:0-visor_main.c **** #ifdef DEBUG
 129:0-visor_main.c ****     DumpVMCB();
 499              		.loc 1 129 0
 500 04b5 E8FCFFFF 		call	DumpVMCB
 500      FF
 130:0-visor_main.c **** #endif
 131:0-visor_main.c **** #endif
 132:0-visor_main.c ****     DoVisor();
 501              		.loc 1 132 0
 502 04ba E8FCFFFF 		call	DoVisor
 502      FF
 133:0-visor_main.c **** }
 503              		.loc 1 133 0
 504 04bf 90       		nop
 505 04c0 8D65F8   		lea	esp, [ebp-8]
 506 04c3 59       		pop	ecx
 507              		.cfi_restore 1
 508              		.cfi_def_cfa 1, 0
 509 04c4 5B       		pop	ebx
 510              		.cfi_restore 3
 511 04c5 5D       		pop	ebp
 512              		.cfi_restore 5
 513 04c6 8D61FC   		lea	esp, [ecx-4]
 514              		.cfi_def_cfa 4, 4
 515 04c9 C3       		ret
 516              		.cfi_endproc
 517              	.LFE0:
 519              	.Letext0:
 520              		.file 2 "types.h"
 521              		.file 3 "xen_types.h"
 522              		.file 4 "x86_architecture.h"
 523              		.file 5 "vmcb.h"
 524              		.file 6 "pmode.h"
 525              		.file 7 "host.h"
 526              		.file 8 "guest.h"
 527              		.file 9 "visor_main.h"
 528              		.file 10 "isr_wrapper.h"